target datalayout = "e-m:e-p270:32:32-p271:32:32-p272:64:64-i64:64-i128:128-f80:128-n8:16:32:64-S128"
target triple = "x86_64-pc-linux-gnu"

%struct.TValue = type { %union.Value, i8 }
%union.Value = type { ptr }

; Function Attrs: nounwind uwtable
define hidden i32 @luaV_flttointeger(double noundef %0, ptr noundef %1, i32 noundef %2) #0 {
  %4 = alloca i32, align 4
  %5 = alloca double, align 8
  %6 = alloca ptr, align 8
  %7 = alloca i32, align 4
  %8 = alloca double, align 8
  %9 = alloca i32, align 4
  store double %0, ptr %5, align 8, !tbaa !14
  store ptr %1, ptr %6, align 8, !tbaa !27
  store i32 %2, ptr %7, align 4, !tbaa !29
  call void @llvm.lifetime.start.p0(i64 8, ptr %8) #10
  %10 = load double, ptr %5, align 8, !tbaa !14
  %11 = call double @llvm.floor.f64(double %10)
  store double %11, ptr %8, align 8, !tbaa !14
  %12 = load double, ptr %5, align 8, !tbaa !14
  %13 = load double, ptr %8, align 8, !tbaa !14
  %14 = fcmp une double %12, %13
  br i1 %14, label %15, label %27

15:                                               ; preds = %3
  %16 = load i32, ptr %7, align 4, !tbaa !29
  %17 = icmp eq i32 %16, 0
  br i1 %17, label %18, label %19

18:                                               ; preds = %15
  store i32 0, ptr %4, align 4
  store i32 1, ptr %9, align 4
  br label %40

19:                                               ; preds = %15
  %20 = load i32, ptr %7, align 4, !tbaa !29
  %21 = icmp eq i32 %20, 2
  br i1 %21, label %22, label %25

22:                                               ; preds = %19
  %23 = load double, ptr %8, align 8, !tbaa !14
  %24 = fadd double %23, 1.000000e+00
  store double %24, ptr %8, align 8, !tbaa !14
  br label %25

25:                                               ; preds = %22, %19
  br label %26

26:                                               ; preds = %25
  br label %27

27:                                               ; preds = %26, %3
  %28 = load double, ptr %8, align 8, !tbaa !14
  %29 = fcmp oge double %28, 0xC3E0000000000000
  br i1 %29, label %30, label %37

30:                                               ; preds = %27
  %31 = load double, ptr %8, align 8, !tbaa !14
  %32 = fcmp olt double %31, 0x43E0000000000000
  br i1 %32, label %33, label %37

33:                                               ; preds = %30
  %34 = load double, ptr %8, align 8, !tbaa !14
  %35 = fptosi double %34 to i64
  %36 = load ptr, ptr %6, align 8, !tbaa !27
  store i64 %35, ptr %36, align 8, !tbaa !30
  br label %37

37:                                               ; preds = %33, %30, %27
  %38 = phi i1 [ false, %30 ], [ false, %27 ], [ true, %33 ]
  %39 = zext i1 %38 to i32
  store i32 %39, ptr %4, align 4
  store i32 1, ptr %9, align 4
  br label %40

40:                                               ; preds = %37, %18
  call void @llvm.lifetime.end.p0(i64 8, ptr %8) #10
  %41 = load i32, ptr %4, align 4
  ret i32 %41
}

; Function Attrs: inlinehint nounwind uwtable
define internal i32 @LTfloatint(double noundef %0, i64 noundef %1) #6 {
  %3 = alloca i32, align 4
  %4 = alloca double, align 8
  %5 = alloca i64, align 8
  %6 = alloca i64, align 8
  %7 = alloca i32, align 4
  store double %0, ptr %4, align 8, !tbaa !14
  store i64 %1, ptr %5, align 8, !tbaa !30
  %8 = load i64, ptr %5, align 8, !tbaa !30
  %9 = add i64 9007199254740992, %8
  %10 = icmp ule i64 %9, 18014398509481984
  br i1 %10, label %11, label %17

11:                                               ; preds = %2
  %12 = load double, ptr %4, align 8, !tbaa !14
  %13 = load i64, ptr %5, align 8, !tbaa !30
  %14 = sitofp i64 %13 to double
  %15 = fcmp olt double %12, %14
  %16 = zext i1 %15 to i32
  store i32 %16, ptr %3, align 4
  br label %31

17:                                               ; preds = %2
  call void @llvm.lifetime.start.p0(i64 8, ptr %6) #10
  %18 = load double, ptr %4, align 8, !tbaa !14
  %19 = call i32 @luaV_flttointeger(double noundef %18, ptr noundef %6, i32 noundef 1)
  %20 = icmp ne i32 %19, 0
  br i1 %20, label %21, label %26

21:                                               ; preds = %17
  %22 = load i64, ptr %6, align 8, !tbaa !30
  %23 = load i64, ptr %5, align 8, !tbaa !30
  %24 = icmp slt i64 %22, %23
  %25 = zext i1 %24 to i32
  store i32 %25, ptr %3, align 4
  store i32 1, ptr %7, align 4
  br label %30

26:                                               ; preds = %17
  %27 = load double, ptr %4, align 8, !tbaa !14
  %28 = fcmp olt double %27, 0.000000e+00
  %29 = zext i1 %28 to i32
  store i32 %29, ptr %3, align 4
  store i32 1, ptr %7, align 4
  br label %30

30:                                               ; preds = %26, %21
  call void @llvm.lifetime.end.p0(i64 8, ptr %6) #10
  br label %31

31:                                               ; preds = %30, %11
  %32 = load i32, ptr %3, align 4
  ret i32 %32
}

; Function Attrs: inlinehint nounwind uwtable
define internal i32 @LTintfloat(i64 noundef %0, double noundef %1) #6 {
  %3 = alloca i32, align 4
  %4 = alloca i64, align 8
  %5 = alloca double, align 8
  %6 = alloca i64, align 8
  %7 = alloca i32, align 4
  store i64 %0, ptr %4, align 8, !tbaa !30
  store double %1, ptr %5, align 8, !tbaa !14
  %8 = load i64, ptr %4, align 8, !tbaa !30
  %9 = add i64 9007199254740992, %8
  %10 = icmp ule i64 %9, 18014398509481984
  br i1 %10, label %11, label %17

11:                                               ; preds = %2
  %12 = load i64, ptr %4, align 8, !tbaa !30
  %13 = sitofp i64 %12 to double
  %14 = load double, ptr %5, align 8, !tbaa !14
  %15 = fcmp olt double %13, %14
  %16 = zext i1 %15 to i32
  store i32 %16, ptr %3, align 4
  br label %31

17:                                               ; preds = %2
  call void @llvm.lifetime.start.p0(i64 8, ptr %6) #10
  %18 = load double, ptr %5, align 8, !tbaa !14
  %19 = call i32 @luaV_flttointeger(double noundef %18, ptr noundef %6, i32 noundef 2)
  %20 = icmp ne i32 %19, 0
  br i1 %20, label %21, label %26

21:                                               ; preds = %17
  %22 = load i64, ptr %4, align 8, !tbaa !30
  %23 = load i64, ptr %6, align 8, !tbaa !30
  %24 = icmp slt i64 %22, %23
  %25 = zext i1 %24 to i32
  store i32 %25, ptr %3, align 4
  store i32 1, ptr %7, align 4
  br label %30

26:                                               ; preds = %17
  %27 = load double, ptr %5, align 8, !tbaa !14
  %28 = fcmp ogt double %27, 0.000000e+00
  %29 = zext i1 %28 to i32
  store i32 %29, ptr %3, align 4
  store i32 1, ptr %7, align 4
  br label %30

30:                                               ; preds = %26, %21
  call void @llvm.lifetime.end.p0(i64 8, ptr %6) #10
  br label %31

31:                                               ; preds = %30, %11
  %32 = load i32, ptr %3, align 4
  ret i32 %32
}

; Function Attrs: inlinehint nounwind uwtable
define internal i32 @LTnum(ptr noundef %0, ptr noundef %1) #6 {
  %3 = alloca i32, align 4
  %4 = alloca ptr, align 8
  %5 = alloca ptr, align 8
  %6 = alloca i64, align 8
  %7 = alloca i32, align 4
  %8 = alloca double, align 8
  store ptr %0, ptr %4, align 8, !tbaa !4
  store ptr %1, ptr %5, align 8, !tbaa !4
  %9 = load ptr, ptr %4, align 8, !tbaa !4
  %10 = getelementptr inbounds nuw %struct.TValue, ptr %9, i32 0, i32 1
  %11 = load i8, ptr %10, align 8, !tbaa !11
  %12 = zext i8 %11 to i32
  %13 = icmp eq i32 %12, 3
  br i1 %13, label %14, label %37

14:                                               ; preds = %2
  call void @llvm.lifetime.start.p0(i64 8, ptr %6) #10
  %15 = load ptr, ptr %4, align 8, !tbaa !4
  %16 = getelementptr inbounds nuw %struct.TValue, ptr %15, i32 0, i32 0
  %17 = load i64, ptr %16, align 8, !tbaa !13
  store i64 %17, ptr %6, align 8, !tbaa !30
  %18 = load ptr, ptr %5, align 8, !tbaa !4
  %19 = getelementptr inbounds nuw %struct.TValue, ptr %18, i32 0, i32 1
  %20 = load i8, ptr %19, align 8, !tbaa !11
  %21 = zext i8 %20 to i32
  %22 = icmp eq i32 %21, 3
  br i1 %22, label %23, label %30

23:                                               ; preds = %14
  %24 = load i64, ptr %6, align 8, !tbaa !30
  %25 = load ptr, ptr %5, align 8, !tbaa !4
  %26 = getelementptr inbounds nuw %struct.TValue, ptr %25, i32 0, i32 0
  %27 = load i64, ptr %26, align 8, !tbaa !13
  %28 = icmp slt i64 %24, %27
  %29 = zext i1 %28 to i32
  store i32 %29, ptr %3, align 4
  store i32 1, ptr %7, align 4
  br label %36

30:                                               ; preds = %14
  %31 = load i64, ptr %6, align 8, !tbaa !30
  %32 = load ptr, ptr %5, align 8, !tbaa !4
  %33 = getelementptr inbounds nuw %struct.TValue, ptr %32, i32 0, i32 0
  %34 = load double, ptr %33, align 8, !tbaa !13
  %35 = call i32 @LTintfloat(i64 noundef %31, double noundef %34)
  store i32 %35, ptr %3, align 4
  store i32 1, ptr %7, align 4
  br label %36

36:                                               ; preds = %30, %23
  call void @llvm.lifetime.end.p0(i64 8, ptr %6) #10
  br label %60

37:                                               ; preds = %2
  call void @llvm.lifetime.start.p0(i64 8, ptr %8) #10
  %38 = load ptr, ptr %4, align 8, !tbaa !4
  %39 = getelementptr inbounds nuw %struct.TValue, ptr %38, i32 0, i32 0
  %40 = load double, ptr %39, align 8, !tbaa !13
  store double %40, ptr %8, align 8, !tbaa !14
  %41 = load ptr, ptr %5, align 8, !tbaa !4
  %42 = getelementptr inbounds nuw %struct.TValue, ptr %41, i32 0, i32 1
  %43 = load i8, ptr %42, align 8, !tbaa !11
  %44 = zext i8 %43 to i32
  %45 = icmp eq i32 %44, 19
  br i1 %45, label %46, label %53

46:                                               ; preds = %37
  %47 = load double, ptr %8, align 8, !tbaa !14
  %48 = load ptr, ptr %5, align 8, !tbaa !4
  %49 = getelementptr inbounds nuw %struct.TValue, ptr %48, i32 0, i32 0
  %50 = load double, ptr %49, align 8, !tbaa !13
  %51 = fcmp olt double %47, %50
  %52 = zext i1 %51 to i32
  store i32 %52, ptr %3, align 4
  store i32 1, ptr %7, align 4
  br label %59

53:                                               ; preds = %37
  %54 = load double, ptr %8, align 8, !tbaa !14
  %55 = load ptr, ptr %5, align 8, !tbaa !4
  %56 = getelementptr inbounds nuw %struct.TValue, ptr %55, i32 0, i32 0
  %57 = load i64, ptr %56, align 8, !tbaa !13
  %58 = call i32 @LTfloatint(double noundef %54, i64 noundef %57)
  store i32 %58, ptr %3, align 4
  store i32 1, ptr %7, align 4
  br label %59

59:                                               ; preds = %53, %46
  call void @llvm.lifetime.end.p0(i64 8, ptr %8) #10
  br label %60

60:                                               ; preds = %59, %36
  %61 = load i32, ptr %3, align 4
  ret i32 %61
}

; Function Attrs: nounwind uwtable
define hidden i32 @luaV_lessthan(ptr noundef %0, ptr noundef %1, ptr noundef %2) #0 {
  %4 = alloca i32, align 4
  %5 = alloca ptr, align 8
  %6 = alloca ptr, align 8
  %7 = alloca ptr, align 8
  store ptr %0, ptr %5, align 8, !tbaa !32
  store ptr %1, ptr %6, align 8, !tbaa !4
  store ptr %2, ptr %7, align 8, !tbaa !4
  %8 = load ptr, ptr %6, align 8, !tbaa !4
  %9 = getelementptr inbounds nuw %struct.TValue, ptr %8, i32 0, i32 1
  %10 = load i8, ptr %9, align 8, !tbaa !11
  %11 = zext i8 %10 to i32
  %12 = and i32 %11, 15
  %13 = icmp eq i32 %12, 3
  br i1 %13, label %14, label %25

14:                                               ; preds = %3
  %15 = load ptr, ptr %7, align 8, !tbaa !4
  %16 = getelementptr inbounds nuw %struct.TValue, ptr %15, i32 0, i32 1
  %17 = load i8, ptr %16, align 8, !tbaa !11
  %18 = zext i8 %17 to i32
  %19 = and i32 %18, 15
  %20 = icmp eq i32 %19, 3
  br i1 %20, label %21, label %25

21:                                               ; preds = %14
  %22 = load ptr, ptr %6, align 8, !tbaa !4
  %23 = load ptr, ptr %7, align 8, !tbaa !4
  %24 = call i32 @LTnum(ptr noundef %22, ptr noundef %23)
  store i32 %24, ptr %4, align 4
  br label %30

25:                                               ; preds = %14, %3
  %26 = load ptr, ptr %5, align 8, !tbaa !32
  %27 = load ptr, ptr %6, align 8, !tbaa !4
  %28 = load ptr, ptr %7, align 8, !tbaa !4
  %29 = call i32 @lessthanothers(ptr noundef %26, ptr noundef %27, ptr noundef %28)
  store i32 %29, ptr %4, align 4
  br label %30

30:                                               ; preds = %25, %21
  %31 = load i32, ptr %4, align 4
  ret i32 %31
}