; Function Attrs: nounwind uwtable
define hidden i32 @luaV_lessthan(ptr noundef %0, ptr noundef %1, ptr noundef %2) local_unnamed_addr #0 {
  %4 = getelementptr inbounds nuw i8, ptr %1, i64 8
  %5 = load i8, ptr %4, align 8, !tbaa !4
  %6 = and i8 %5, 15
  %7 = icmp eq i8 %6, 3
  br i1 %7, label %8, label %55

8:                                                ; preds = %3
  %9 = getelementptr inbounds nuw i8, ptr %2, i64 8
  %10 = load i8, ptr %9, align 8, !tbaa !4
  %11 = and i8 %10, 15
  %12 = icmp eq i8 %11, 3
  br i1 %12, label %13, label %55

13:                                               ; preds = %8
  %14 = icmp eq i8 %5, 3
  br i1 %14, label %15, label %36

15:                                               ; preds = %13
  %16 = load i64, ptr %1, align 8, !tbaa !8
  %17 = icmp eq i8 %10, 3
  br i1 %17, label %18, label %21

18:                                               ; preds = %15
  %19 = load i64, ptr %2, align 8, !tbaa !8
  %20 = icmp slt i64 %16, %19
  br label %LTnum.exit

21:                                               ; preds = %15
  %22 = load double, ptr %2, align 8, !tbaa !8
  %23 = add i64 %16, 9007199254740992
  %24 = icmp ult i64 %23, 18014398509481985
  br i1 %24, label %25, label %luaV_flttointeger.exit.i.i

25:                                               ; preds = %21
  %26 = sitofp i64 %16 to double
  %27 = fcmp ogt double %22, %26
  br label %LTnum.exit

luaV_flttointeger.exit.i.i:                       ; preds = %21
  %28 = tail call double @llvm.floor.f64(double %22)
  %29 = fcmp une double %22, %28
  %30 = fadd double %28, 1.000000e+00
  %.0.i.i.i = select i1 %29, double %30, double %28
  %31 = fcmp oge double %.0.i.i.i, 0xC3E0000000000000
  %32 = fcmp olt double %.0.i.i.i, 0x43E0000000000000
  %or.cond.i.not.not.i.i = and i1 %31, %32
  %33 = fptosi double %.0.i.i.i to i64
  %34 = icmp slt i64 %16, %33
  %35 = fcmp ogt double %22, 0.000000e+00
  %.1.in.i.i = select i1 %or.cond.i.not.not.i.i, i1 %34, i1 %35
  br label %LTnum.exit

36:                                               ; preds = %13
  %37 = load double, ptr %1, align 8, !tbaa !8
  %38 = icmp eq i8 %10, 19
  br i1 %38, label %39, label %42

39:                                               ; preds = %36
  %40 = load double, ptr %2, align 8, !tbaa !8
  %41 = fcmp olt double %37, %40
  br label %LTnum.exit

42:                                               ; preds = %36
  %43 = load i64, ptr %2, align 8, !tbaa !8
  %44 = add i64 %43, 9007199254740992
  %45 = icmp ult i64 %44, 18014398509481985
  br i1 %45, label %46, label %luaV_flttointeger.exit.i13.i

46:                                               ; preds = %42
  %47 = sitofp i64 %43 to double
  %48 = fcmp olt double %37, %47
  br label %LTnum.exit

luaV_flttointeger.exit.i13.i:                     ; preds = %42
  %49 = tail call double @llvm.floor.f64(double %37)
  %50 = fcmp oge double %49, 0xC3E0000000000000
  %51 = fcmp olt double %49, 0x43E0000000000000
  %or.cond.i.not.not.i14.i = and i1 %50, %51
  %52 = fptosi double %49 to i64
  %53 = icmp sgt i64 %43, %52
  %54 = fcmp olt double %37, 0.000000e+00
  %.1.in.i15.i = select i1 %or.cond.i.not.not.i14.i, i1 %53, i1 %54
  br label %LTnum.exit

LTnum.exit:                                       ; preds = %18, %25, %luaV_flttointeger.exit.i.i, %39, %46, %luaV_flttointeger.exit.i13.i
  %.1.in.i = phi i1 [ %20, %18 ], [ %41, %39 ], [ %27, %25 ], [ %.1.in.i.i, %luaV_flttointeger.exit.i.i ], [ %48, %46 ], [ %.1.in.i15.i, %luaV_flttointeger.exit.i13.i ]
  %.1.i = zext i1 %.1.in.i to i32
  br label %57

55:                                               ; preds = %8, %3
  %56 = tail call fastcc i32 @lessthanothers(ptr noundef %0, ptr noundef nonnull %1, ptr noundef %2)
  br label %57

57:                                               ; preds = %55, %LTnum.exit
  %.0 = phi i32 [ %.1.i, %LTnum.exit ], [ %56, %55 ]
  ret i32 %.0
}